; Function Attrs: mustprogress uwtable
define void @_ZN29RadianceScalingRendererPluginC2Ev(ptr noundef nonnull align 8 dereferenceable(128) %0, ptr nocapture noundef readonly %1) unnamed_addr #9 align 2 personality ptr @__gxx_personality_v0 {
  tail call void @_ZN7QObjectC2EPS_(ptr noundef nonnull align 8 dereferenceable(16) %0, ptr noundef null)
  %3 = getelementptr inbounds i8, ptr %0, i64 16
  %4 = getelementptr inbounds i8, ptr %1, i64 8
  %5 = load ptr, ptr %4, align 8
  store ptr %5, ptr %3, align 8
  %6 = getelementptr inbounds i8, ptr %1, i64 16
  %7 = load ptr, ptr %6, align 8
  %8 = getelementptr i8, ptr %5, i64 -24
  %9 = load i64, ptr %8, align 8
  %10 = getelementptr inbounds i8, ptr %3, i64 %9
  store ptr %7, ptr %10, align 8
  %11 = getelementptr inbounds i8, ptr %1, i64 24
  %12 = load ptr, ptr %11, align 8
  %13 = load ptr, ptr %3, align 8
  %14 = getelementptr i8, ptr %13, i64 -32
  %15 = load i64, ptr %14, align 8
  %16 = getelementptr inbounds i8, ptr %3, i64 %15
  store ptr %12, ptr %16, align 8
  %17 = load ptr, ptr %1, align 8
  store ptr %17, ptr %0, align 8
  %18 = getelementptr inbounds i8, ptr %1, i64 32
  %19 = load ptr, ptr %18, align 8
  store ptr %19, ptr %3, align 8
  %20 = getelementptr inbounds i8, ptr %1, i64 40
  %21 = load ptr, ptr %20, align 8
  %22 = getelementptr i8, ptr %17, i64 -24
  %23 = load i64, ptr %22, align 8
  %24 = getelementptr inbounds i8, ptr %0, i64 %23
  store ptr %21, ptr %24, align 8
  %25 = getelementptr inbounds i8, ptr %1, i64 48
  %26 = load ptr, ptr %25, align 8
  %27 = load ptr, ptr %0, align 8
  %28 = getelementptr i8, ptr %27, i64 -32
  %29 = load i64, ptr %28, align 8
  %30 = getelementptr inbounds i8, ptr %0, i64 %29
  store ptr %26, ptr %30, align 8
  %31 = getelementptr inbounds i8, ptr %0, i64 24
  store i8 0, ptr %31, align 8
  %32 = getelementptr inbounds i8, ptr %0, i64 32
  store ptr @_ZN9QListData11shared_nullE, ptr %32, align 8
  %33 = getelementptr inbounds i8, ptr %0, i64 40
  tail call void @llvm.memset.p0.i64(ptr noundef nonnull align 8 dereferenceable(80) %33, i8 0, i64 80, i1 false)
  ret void
}